target datalayout = "e-m:e-p270:32:32-p271:32:32-p272:64:64-i64:64-i128:128-f80:128-n8:16:32:64-S128"
target triple = "x86_64-pc-linux-gnu"

%struct._object = type { %union.anon, ptr }
%union.anon = type { i64 }
%struct.anon = type { i32, i32 }

@.str.32 = private unnamed_addr constant [40 x i8] c"../cpython/Modules/_testcapi/watchers.c\00", align 1
@_Py_NoneStruct = external global %struct._object, align 8
@g_type_watchers_installed = internal global i32 0, align 4
@g_type_modified_events = internal global ptr null, align 8
@.str.48 = private unnamed_addr constant [23 x i8] c"g_type_modified_events\00", align 1
@__PRETTY_FUNCTION__.clear_type_watcher = private unnamed_addr constant [53 x i8] c"PyObject *clear_type_watcher(PyObject *, PyObject *)\00", align 1

; Function Attrs: alwaysinline nounwind uwtable
define internal i32 @_Py_IsImmortal(ptr noundef %0) #5 {
  %2 = alloca ptr, align 8
  store ptr %0, ptr %2, align 8, !tbaa !3
  %3 = load ptr, ptr %2, align 8, !tbaa !3
  %4 = getelementptr inbounds nuw %struct._object, ptr %3, i32 0, i32 0
  %5 = getelementptr inbounds nuw %struct.anon, ptr %4, i32 0, i32 0
  %6 = load i32, ptr %5, align 8, !tbaa !52
  %7 = icmp slt i32 %6, 0
  %8 = zext i1 %7 to i32
  ret i32 %8
}

; Function Attrs: alwaysinline nounwind uwtable
define internal void @Py_DECREF(ptr noundef %0) #5 {
  %2 = alloca ptr, align 8
  store ptr %0, ptr %2, align 8, !tbaa !3
  %3 = load ptr, ptr %2, align 8, !tbaa !3
  %4 = call i32 @_Py_IsImmortal(ptr noundef %3)
  %5 = icmp ne i32 %4, 0
  br i1 %5, label %6, label %7

6:                                                ; preds = %1
  br label %16

7:                                                ; preds = %1
  %8 = load ptr, ptr %2, align 8, !tbaa !3
  %9 = getelementptr inbounds nuw %struct._object, ptr %8, i32 0, i32 0
  %10 = getelementptr inbounds nuw %struct.anon, ptr %9, i32 0, i32 0
  %11 = load i32, ptr %10, align 8, !tbaa !52
  %12 = add i32 %11, -1
  store i32 %12, ptr %10, align 8, !tbaa !52
  %13 = icmp eq i32 %12, 0
  br i1 %13, label %14, label %16

14:                                               ; preds = %7
  %15 = load ptr, ptr %2, align 8, !tbaa !3
  call void @_Py_Dealloc(ptr noundef %15)
  br label %16

16:                                               ; preds = %6, %14, %7
  ret void
}

; Function Attrs: nounwind uwtable
define internal ptr @clear_type_watcher(ptr noundef %0, ptr noundef %1) #0 {
  %3 = alloca ptr, align 8
  %4 = alloca ptr, align 8
  %5 = alloca ptr, align 8
  %6 = alloca ptr, align 8
  %7 = alloca ptr, align 8
  store ptr %0, ptr %4, align 8, !tbaa !3
  store ptr %1, ptr %5, align 8, !tbaa !3
  %8 = load ptr, ptr %5, align 8, !tbaa !3
  %9 = call i64 @PyLong_AsLong(ptr noundef %8)
  %10 = trunc i64 %9 to i32
  %11 = call i32 @PyType_ClearWatcher(i32 noundef %10)
  %12 = icmp ne i32 %11, 0
  br i1 %12, label %13, label %14

13:                                               ; preds = %2
  store ptr null, ptr %3, align 8
  br label %37

14:                                               ; preds = %2
  %15 = load i32, ptr @g_type_watchers_installed, align 4, !tbaa !10
  %16 = add i32 %15, -1
  store i32 %16, ptr @g_type_watchers_installed, align 4, !tbaa !10
  %17 = load i32, ptr @g_type_watchers_installed, align 4, !tbaa !10
  %18 = icmp ne i32 %17, 0
  br i1 %18, label %36, label %19

19:                                               ; preds = %14
  %20 = load ptr, ptr @g_type_modified_events, align 8, !tbaa !3
  %21 = icmp ne ptr %20, null
  br i1 %21, label %22, label %23

22:                                               ; preds = %19
  br label %25

23:                                               ; preds = %19
  call void @__assert_fail(ptr noundef @.str.48, ptr noundef @.str.32, i32 noundef 251, ptr noundef @__PRETTY_FUNCTION__.clear_type_watcher) #7
  unreachable

24:                                               ; No predecessors!
  br label %25

25:                                               ; preds = %24, %22
  br label %26

26:                                               ; preds = %25
  call void @llvm.lifetime.start.p0(i64 8, ptr %6) #6
  store ptr @g_type_modified_events, ptr %6, align 8, !tbaa !14
  call void @llvm.lifetime.start.p0(i64 8, ptr %7) #6
  %27 = load ptr, ptr %6, align 8, !tbaa !14
  %28 = load ptr, ptr %27, align 8, !tbaa !3
  store ptr %28, ptr %7, align 8, !tbaa !3
  %29 = load ptr, ptr %7, align 8, !tbaa !3
  %30 = icmp ne ptr %29, null
  br i1 %30, label %31, label %34

31:                                               ; preds = %26
  %32 = load ptr, ptr %6, align 8, !tbaa !14
  store ptr null, ptr %32, align 8, !tbaa !3
  %33 = load ptr, ptr %7, align 8, !tbaa !3
  call void @Py_DECREF(ptr noundef %33)
  br label %34

34:                                               ; preds = %31, %26
  call void @llvm.lifetime.end.p0(i64 8, ptr %7) #6
  call void @llvm.lifetime.end.p0(i64 8, ptr %6) #6
  br label %35

35:                                               ; preds = %34
  br label %36

36:                                               ; preds = %35, %14
  store ptr @_Py_NoneStruct, ptr %3, align 8
  br label %37

37:                                               ; preds = %36, %13
  %38 = load ptr, ptr %3, align 8
  ret ptr %38
}